target datalayout = "e-m:e-p270:32:32-p271:32:32-p272:64:64-i64:64-i128:128-f80:128-n8:16:32:64-S128"
target triple = "x86_64-pc-linux-gnu"

@.str.66 = private unnamed_addr constant [14 x i8] c"UNKNOWN_VALUE\00", align 1
@.str.75 = private unnamed_addr constant [43 x i8] c"MBEDTLS_SSL_KEY_EXPORT_TLS12_MASTER_SECRET\00", align 1
@.str.76 = private unnamed_addr constant [50 x i8] c"MBEDTLS_SSL_KEY_EXPORT_TLS1_3_CLIENT_EARLY_SECRET\00", align 1
@.str.77 = private unnamed_addr constant [52 x i8] c"MBEDTLS_SSL_KEY_EXPORT_TLS1_3_EARLY_EXPORTER_SECRET\00", align 1
@.str.78 = private unnamed_addr constant [62 x i8] c"MBEDTLS_SSL_KEY_EXPORT_TLS1_3_CLIENT_HANDSHAKE_TRAFFIC_SECRET\00", align 1
@.str.79 = private unnamed_addr constant [62 x i8] c"MBEDTLS_SSL_KEY_EXPORT_TLS1_3_SERVER_HANDSHAKE_TRAFFIC_SECRET\00", align 1
@.str.80 = private unnamed_addr constant [64 x i8] c"MBEDTLS_SSL_KEY_EXPORT_TLS1_3_CLIENT_APPLICATION_TRAFFIC_SECRET\00", align 1
@.str.81 = private unnamed_addr constant [64 x i8] c"MBEDTLS_SSL_KEY_EXPORT_TLS1_3_SERVER_APPLICATION_TRAFFIC_SECRET\00", align 1

; Function Attrs: nounwind uwtable
define hidden ptr @mbedtls_ssl_key_export_type_str(i32 noundef %0) #0 {
  %2 = alloca ptr, align 8
  %3 = alloca i32, align 4
  store i32 %0, ptr %3, align 4, !tbaa !7
  %4 = load i32, ptr %3, align 4, !tbaa !7
  switch i32 %4, label %12 [
    i32 0, label %5
    i32 1, label %6
    i32 2, label %7
    i32 3, label %8
    i32 4, label %9
    i32 5, label %10
    i32 6, label %11
  ]

5:                                                ; preds = %1
  store ptr @.str.75, ptr %2, align 8
  br label %13

6:                                                ; preds = %1
  store ptr @.str.76, ptr %2, align 8
  br label %13

7:                                                ; preds = %1
  store ptr @.str.77, ptr %2, align 8
  br label %13

8:                                                ; preds = %1
  store ptr @.str.78, ptr %2, align 8
  br label %13

9:                                                ; preds = %1
  store ptr @.str.79, ptr %2, align 8
  br label %13

10:                                               ; preds = %1
  store ptr @.str.80, ptr %2, align 8
  br label %13

11:                                               ; preds = %1
  store ptr @.str.81, ptr %2, align 8
  br label %13

12:                                               ; preds = %1
  store ptr @.str.66, ptr %2, align 8
  br label %13

13:                                               ; preds = %12, %11, %10, %9, %8, %7, %6, %5
  %14 = load ptr, ptr %2, align 8
  ret ptr %14
}